; Function Attrs: mustprogress uwtable
define internal fastcc noundef nonnull align 8 dereferenceable(64) ptr @_ZN2cvlsISt6vectorINS_6Point_IfEESaIS3_EEEERNS_11FileStorageES7_RKT_(ptr noundef nonnull returned align 8 dereferenceable(64) %0, ptr noundef nonnull align 8 dereferenceable(24) %1) unnamed_addr #3 personality ptr @__gxx_personality_v0 {
  %3 = alloca %"class.cv::internal::VecWriterProxy.114", align 8
  %4 = alloca %"class.cv::internal::WriteStructContext", align 8
  %5 = alloca %"class.std::__cxx11::basic_string", align 8
  %6 = alloca %"class.std::__cxx11::basic_string", align 8
  %7 = alloca %"class.std::allocator", align 1
  %8 = load ptr, ptr %0, align 8
  %9 = getelementptr inbounds i8, ptr %8, i64 24
  %10 = load ptr, ptr %9, align 8
  %11 = tail call noundef zeroext i1 %10(ptr noundef nonnull align 8 dereferenceable(64) %0)
  br i1 %11, label %12, label %34

12:                                               ; preds = %2
  %13 = getelementptr inbounds i8, ptr %0, i64 8
  %14 = load i32, ptr %13, align 8
  %15 = icmp eq i32 %14, 6
  br i1 %15, label %16, label %24

16:                                               ; preds = %12
  call void @_ZNSaIcEC1Ev(ptr noundef nonnull align 1 dereferenceable(1) %7) #22
  invoke void @_ZNSt7__cxx1112basic_stringIcSt11char_traitsIcESaIcEEC1EPKcRKS3_(ptr noundef nonnull align 8 dereferenceable(32) %6, ptr noundef nonnull @.str.43, ptr noundef nonnull align 1 dereferenceable(1) %7)
          to label %17 unwind label %19

17:                                               ; preds = %16
  invoke void @_ZN2cv5errorEiRKNSt7__cxx1112basic_stringIcSt11char_traitsIcESaIcEEEPKcS9_i(i32 noundef -2, ptr noundef nonnull align 8 dereferenceable(32) %6, ptr noundef nonnull @__func__._ZN2cvlsIiEERNS_11FileStorageES2_RKT_, ptr noundef nonnull @.str.44, i32 noundef 1201) #23
          to label %18 unwind label %21

18:                                               ; preds = %17
  unreachable

19:                                               ; preds = %16
  %20 = landingpad { ptr, i32 }
          cleanup
  br label %23

21:                                               ; preds = %17
  %22 = landingpad { ptr, i32 }
          cleanup
  call void @_ZNSt7__cxx1112basic_stringIcSt11char_traitsIcESaIcEED1Ev(ptr noundef nonnull align 8 dereferenceable(32) %6) #22
  br label %23

common.resume:                                    ; preds = %27, %29, %23
  %common.resume.op = phi { ptr, i32 } [ %.pn, %23 ], [ %30, %29 ], [ %28, %27 ]
  resume { ptr, i32 } %common.resume.op

23:                                               ; preds = %21, %19
  %.pn = phi { ptr, i32 } [ %22, %21 ], [ %20, %19 ]
  call void @_ZNSaIcED1Ev(ptr noundef nonnull align 1 dereferenceable(1) %7) #22
  br label %common.resume

24:                                               ; preds = %12
  %25 = getelementptr inbounds i8, ptr %0, i64 16
  call void @llvm.lifetime.start.p0(i64 8, ptr nonnull %4)
  call void @llvm.lifetime.start.p0(i64 32, ptr nonnull %5)
  call void @_ZNSt7__cxx1112basic_stringIcSt11char_traitsIcESaIcEEC1Ev(ptr noundef nonnull align 8 dereferenceable(32) %5) #22
  invoke void @_ZN2cv8internal18WriteStructContextC1ERNS_11FileStorageERKNSt7__cxx1112basic_stringIcSt11char_traitsIcESaIcEEEiSB_(ptr noundef nonnull align 8 dereferenceable(8) %4, ptr noundef nonnull align 8 dereferenceable(64) %0, ptr noundef nonnull align 8 dereferenceable(32) %25, i32 noundef 12, ptr noundef nonnull align 8 dereferenceable(32) %5)
          to label %26 unwind label %27

26:                                               ; preds = %24
  call void @_ZNSt7__cxx1112basic_stringIcSt11char_traitsIcESaIcEED1Ev(ptr noundef nonnull align 8 dereferenceable(32) %5) #22
  call void @llvm.lifetime.start.p0(i64 8, ptr nonnull %3)
  store ptr %0, ptr %3, align 8
  invoke void @_ZNK2cv8internal14VecWriterProxyINS_6Point_IfEELi1EEclERKSt6vectorIS3_SaIS3_EE(ptr noundef nonnull align 8 dereferenceable(8) %3, ptr noundef nonnull align 8 dereferenceable(24) %1)
          to label %_ZN2cvL5writeINS_6Point_IfEEEEvRNS_11FileStorageERKNSt7__cxx1112basic_stringIcSt11char_traitsIcESaIcEEERKSt6vectorIT_SaISE_EE.exit unwind label %29

27:                                               ; preds = %24
  %28 = landingpad { ptr, i32 }
          cleanup
  call void @_ZNSt7__cxx1112basic_stringIcSt11char_traitsIcESaIcEED1Ev(ptr noundef nonnull align 8 dereferenceable(32) %5) #22
  br label %common.resume

29:                                               ; preds = %26
  %30 = landingpad { ptr, i32 }
          cleanup
  call void @_ZN2cv8internal18WriteStructContextD1Ev(ptr noundef nonnull align 8 dereferenceable(8) %4) #22
  br label %common.resume

_ZN2cvL5writeINS_6Point_IfEEEEvRNS_11FileStorageERKNSt7__cxx1112basic_stringIcSt11char_traitsIcESaIcEEERKSt6vectorIT_SaISE_EE.exit: ; preds = %26
  call void @llvm.lifetime.end.p0(i64 8, ptr nonnull %3)
  call void @_ZN2cv8internal18WriteStructContextD1Ev(ptr noundef nonnull align 8 dereferenceable(8) %4) #22
  call void @llvm.lifetime.end.p0(i64 8, ptr nonnull %4)
  call void @llvm.lifetime.end.p0(i64 32, ptr nonnull %5)
  %31 = load i32, ptr %13, align 8
  %32 = and i32 %31, 4
  %.not = icmp eq i32 %32, 0
  br i1 %.not, label %34, label %33

33:                                               ; preds = %_ZN2cvL5writeINS_6Point_IfEEEEvRNS_11FileStorageERKNSt7__cxx1112basic_stringIcSt11char_traitsIcESaIcEEERKSt6vectorIT_SaISE_EE.exit
  store i32 6, ptr %13, align 8
  br label %34

34:                                               ; preds = %_ZN2cvL5writeINS_6Point_IfEEEEvRNS_11FileStorageERKNSt7__cxx1112basic_stringIcSt11char_traitsIcESaIcEEERKSt6vectorIT_SaISE_EE.exit, %33, %2
  ret ptr %0
}